target datalayout = "e-m:e-p270:32:32-p271:32:32-p272:64:64-i64:64-i128:128-f80:128-n8:16:32:64-S128"
target triple = "x86_64-pc-linux-gnu"

%"class.std::basic_ostream" = type { ptr, %"class.std::basic_ios" }
%"class.std::basic_ios" = type { %"class.std::ios_base", ptr, i8, i8, ptr, ptr, ptr, ptr }
%"class.std::ios_base" = type { ptr, i64, i64, i32, i32, i32, ptr, %"struct.std::ios_base::_Words", [8 x %"struct.std::ios_base::_Words"], i32, ptr, %"class.std::locale" }
%"struct.std::ios_base::_Words" = type { ptr, i64 }
%"class.std::locale" = type { ptr }
%"struct.realclosure::mpbq_config::interval" = type { %class.mpbq, %class.mpbq, i8, i8, i8, i8, [4 x i8] }
%class.mpbq = type <{ %class.mpz, i32, [4 x i8] }>
%class.mpz = type { i32, i8, ptr }
%"struct.realclosure::extension" = type { i32, i32, %"struct.realclosure::mpbq_config::interval", ptr }
%class.symbol = type { ptr }
%"struct.realclosure::transcendental" = type { %"struct.realclosure::extension", %class.symbol, %class.symbol, i32, ptr }

@_ZSt4cout = external global %"class.std::basic_ostream", align 8
@.str.68 = private unnamed_addr constant [13 x i8] c"&alpha;<sub>\00", align 1
@.str.69 = private unnamed_addr constant [7 x i8] c"</sub>\00", align 1
@.str.70 = private unnamed_addr constant [3 x i8] c"r!\00", align 1
@.str.71 = private unnamed_addr constant [5 x i8] c"null\00", align 1
@.str.72 = private unnamed_addr constant [3 x i8] c"k!\00", align 1

; Function Attrs: inlinehint mustprogress nounwind uwtable
define linkonce_odr noundef i32 @_ZStorSt12_Ios_IostateS_(i32 noundef %0, i32 noundef %1) #5 comdat {
  %3 = alloca i32, align 4
  %4 = alloca i32, align 4
  store i32 %0, ptr %3, align 4, !tbaa !581
  store i32 %1, ptr %4, align 4, !tbaa !581
  %5 = load i32, ptr %3, align 4, !tbaa !581
  %6 = load i32, ptr %4, align 4, !tbaa !581
  %7 = or i32 %5, %6
  ret i32 %7
}

; Function Attrs: mustprogress nounwind uwtable
define available_externally noundef i32 @_ZNKSt9basic_iosIcSt11char_traitsIcEE7rdstateEv(ptr noundef nonnull align 8 dereferenceable(264) %0) #4 align 2 {
  %2 = alloca ptr, align 8
  store ptr %0, ptr %2, align 8, !tbaa !579
  %3 = load ptr, ptr %2, align 8
  %4 = getelementptr inbounds nuw %"class.std::ios_base", ptr %3, i32 0, i32 5
  %5 = load i32, ptr %4, align 8, !tbaa !583
  ret i32 %5
}

; Function Attrs: mustprogress nounwind uwtable
define linkonce_odr hidden noundef i64 @_ZNSt11char_traitsIcE6lengthEPKc(ptr noundef %0) #4 comdat align 2 {
  %2 = alloca ptr, align 8
  store ptr %0, ptr %2, align 8, !tbaa !10
  %3 = load ptr, ptr %2, align 8, !tbaa !10
  %4 = call i64 @strlen(ptr noundef %3) #3
  ret i64 %4
}

; Function Attrs: mustprogress uwtable
define available_externally void @_ZNSt9basic_iosIcSt11char_traitsIcEE8setstateESt12_Ios_Iostate(ptr noundef nonnull align 8 dereferenceable(264) %0, i32 noundef %1) #6 align 2 {
  %3 = alloca ptr, align 8
  %4 = alloca i32, align 4
  store ptr %0, ptr %3, align 8, !tbaa !579
  store i32 %1, ptr %4, align 4, !tbaa !581
  %5 = load ptr, ptr %3, align 8
  %6 = call noundef i32 @_ZNKSt9basic_iosIcSt11char_traitsIcEE7rdstateEv(ptr noundef nonnull align 8 dereferenceable(264) %5)
  %7 = load i32, ptr %4, align 4, !tbaa !581
  %8 = call noundef i32 @_ZStorSt12_Ios_IostateS_(i32 noundef %6, i32 noundef %7)
  call void @_ZNSt9basic_iosIcSt11char_traitsIcEE5clearESt12_Ios_Iostate(ptr noundef nonnull align 8 dereferenceable(264) %5, i32 noundef %8)
  ret void
}

; Function Attrs: mustprogress uwtable
define linkonce_odr hidden noundef nonnull align 8 dereferenceable(8) ptr @_ZlsRSo6symbol(ptr noundef nonnull align 8 dereferenceable(8) %0, ptr %1) #6 comdat {
  %3 = alloca %class.symbol, align 8
  %4 = alloca ptr, align 8
  %5 = getelementptr inbounds nuw %class.symbol, ptr %3, i32 0, i32 0
  store ptr %1, ptr %5, align 8
  store ptr %0, ptr %4, align 8, !tbaa !106
  %6 = getelementptr inbounds nuw %class.symbol, ptr %3, i32 0, i32 0
  %7 = load ptr, ptr %6, align 8, !tbaa !304
  %8 = ptrtoint ptr %7 to i64
  %9 = and i64 %8, 7
  %10 = icmp eq i64 %9, 0
  br i1 %10, label %11, label %24

11:                                               ; preds = %2
  %12 = getelementptr inbounds nuw %class.symbol, ptr %3, i32 0, i32 0
  %13 = load ptr, ptr %12, align 8, !tbaa !304
  %14 = icmp ne ptr %13, null
  br i1 %14, label %15, label %20

15:                                               ; preds = %11
  %16 = load ptr, ptr %4, align 8, !tbaa !106
  %17 = getelementptr inbounds nuw %class.symbol, ptr %3, i32 0, i32 0
  %18 = load ptr, ptr %17, align 8, !tbaa !304
  %19 = call noundef nonnull align 8 dereferenceable(8) ptr @_ZStlsISt11char_traitsIcEERSt13basic_ostreamIcT_ES5_PKc(ptr noundef nonnull align 8 dereferenceable(8) %16, ptr noundef %18)
  br label %23

20:                                               ; preds = %11
  %21 = load ptr, ptr %4, align 8, !tbaa !106
  %22 = call noundef nonnull align 8 dereferenceable(8) ptr @_ZStlsISt11char_traitsIcEERSt13basic_ostreamIcT_ES5_PKc(ptr noundef nonnull align 8 dereferenceable(8) %21, ptr noundef @.str.71)
  br label %23

23:                                               ; preds = %20, %15
  br label %33

24:                                               ; preds = %2
  %25 = load ptr, ptr %4, align 8, !tbaa !106
  %26 = call noundef nonnull align 8 dereferenceable(8) ptr @_ZStlsISt11char_traitsIcEERSt13basic_ostreamIcT_ES5_PKc(ptr noundef nonnull align 8 dereferenceable(8) %25, ptr noundef @.str.72)
  %27 = getelementptr inbounds nuw %class.symbol, ptr %3, i32 0, i32 0
  %28 = load ptr, ptr %27, align 8, !tbaa !304
  %29 = ptrtoint ptr %28 to i64
  %30 = lshr i64 %29, 3
  %31 = trunc i64 %30 to i32
  %32 = call noundef nonnull align 8 dereferenceable(8) ptr @_ZNSolsEi(ptr noundef nonnull align 8 dereferenceable(8) %26, i32 noundef %31)
  br label %33

33:                                               ; preds = %24, %23
  %34 = load ptr, ptr %4, align 8, !tbaa !106
  ret ptr %34
}

; Function Attrs: mustprogress nounwind uwtable
define linkonce_odr hidden noundef ptr @_ZN11realclosure7manager3imp12to_algebraicEPNS_9extensionE(ptr noundef %0) #4 comdat align 2 {
  %2 = alloca ptr, align 8
  store ptr %0, ptr %2, align 8, !tbaa !13
  %3 = load ptr, ptr %2, align 8, !tbaa !13
  ret ptr %3
}

; Function Attrs: mustprogress uwtable
define available_externally noundef nonnull align 8 dereferenceable(8) ptr @_ZNSolsEj(ptr noundef nonnull align 8 dereferenceable(8) %0, i32 noundef %1) #6 align 2 {
  %3 = alloca ptr, align 8
  %4 = alloca i32, align 4
  store ptr %0, ptr %3, align 8, !tbaa !106
  store i32 %1, ptr %4, align 4, !tbaa !82
  %5 = load ptr, ptr %3, align 8
  %6 = load i32, ptr %4, align 4, !tbaa !82
  %7 = zext i32 %6 to i64
  %8 = call noundef nonnull align 8 dereferenceable(8) ptr @_ZNSo9_M_insertImEERSoT_(ptr noundef nonnull align 8 dereferenceable(8) %5, i64 noundef %7)
  ret ptr %8
}

; Function Attrs: mustprogress nounwind uwtable
define linkonce_odr hidden noundef i32 @_ZNK11realclosure9extension3idxEv(ptr noundef nonnull align 8 dereferenceable(72) %0) #4 comdat align 2 {
  %2 = alloca ptr, align 8
  store ptr %0, ptr %2, align 8, !tbaa !13
  %3 = load ptr, ptr %2, align 8
  %4 = getelementptr inbounds nuw %"struct.realclosure::extension", ptr %3, i32 0, i32 1
  %5 = load i32, ptr %4, align 4
  %6 = lshr i32 %5, 2
  ret i32 %6
}

; Function Attrs: inlinehint mustprogress uwtable
define available_externally noundef nonnull align 8 dereferenceable(8) ptr @_ZStlsISt11char_traitsIcEERSt13basic_ostreamIcT_ES5_PKc(ptr noundef nonnull align 8 dereferenceable(8) %0, ptr noundef %1) #9 {
  %3 = alloca ptr, align 8
  %4 = alloca ptr, align 8
  store ptr %0, ptr %3, align 8, !tbaa !106
  store ptr %1, ptr %4, align 8, !tbaa !10
  %5 = load ptr, ptr %4, align 8, !tbaa !10
  %6 = icmp ne ptr %5, null
  br i1 %6, label %13, label %7

7:                                                ; preds = %2
  %8 = load ptr, ptr %3, align 8, !tbaa !106
  %9 = load ptr, ptr %8, align 8, !tbaa !128
  %10 = getelementptr i8, ptr %9, i64 -24
  %11 = load i64, ptr %10, align 8
  %12 = getelementptr inbounds i8, ptr %8, i64 %11
  call void @_ZNSt9basic_iosIcSt11char_traitsIcEE8setstateESt12_Ios_Iostate(ptr noundef nonnull align 8 dereferenceable(264) %12, i32 noundef 1)
  br label %19

13:                                               ; preds = %2
  %14 = load ptr, ptr %3, align 8, !tbaa !106
  %15 = load ptr, ptr %4, align 8, !tbaa !10
  %16 = load ptr, ptr %4, align 8, !tbaa !10
  %17 = call noundef i64 @_ZNSt11char_traitsIcE6lengthEPKc(ptr noundef %16)
  %18 = call noundef nonnull align 8 dereferenceable(8) ptr @_ZSt16__ostream_insertIcSt11char_traitsIcEERSt13basic_ostreamIT_T0_ES6_PKS3_l(ptr noundef nonnull align 8 dereferenceable(8) %14, ptr noundef %15, i64 noundef %17)
  br label %19

19:                                               ; preds = %13, %7
  %20 = load ptr, ptr %3, align 8, !tbaa !106
  ret ptr %20
}

; Function Attrs: mustprogress nounwind uwtable
define linkonce_odr hidden noundef ptr @_ZN11realclosure7manager3imp16to_infinitesimalEPNS_9extensionE(ptr noundef %0) #4 comdat align 2 {
  %2 = alloca ptr, align 8
  store ptr %0, ptr %2, align 8, !tbaa !13
  %3 = load ptr, ptr %2, align 8, !tbaa !13
  ret ptr %3
}

; Function Attrs: mustprogress uwtable
define linkonce_odr hidden void @_ZNK11realclosure14transcendental7displayERSob(ptr noundef nonnull align 8 dereferenceable(104) %0, ptr noundef nonnull align 8 dereferenceable(8) %1, i1 noundef zeroext %2) #6 comdat align 2 {
  %4 = alloca ptr, align 8
  %5 = alloca ptr, align 8
  %6 = alloca i8, align 1
  %7 = alloca %class.symbol, align 8
  %8 = alloca %class.symbol, align 8
  store ptr %0, ptr %4, align 8, !tbaa !223
  store ptr %1, ptr %5, align 8, !tbaa !106
  %9 = zext i1 %2 to i8
  store i8 %9, ptr %6, align 1, !tbaa !108
  %10 = load ptr, ptr %4, align 8
  %11 = load i8, ptr %6, align 1, !tbaa !108, !range !109, !noundef !110
  %12 = trunc i8 %11 to i1
  br i1 %12, label %13, label %19

13:                                               ; preds = %3
  %14 = load ptr, ptr %5, align 8, !tbaa !106
  %15 = getelementptr inbounds nuw %"struct.realclosure::transcendental", ptr %10, i32 0, i32 2
  call void @llvm.memcpy.p0.p0.i64(ptr align 8 %7, ptr align 8 %15, i64 8, i1 false), !tbaa.struct !111
  %16 = getelementptr inbounds nuw %class.symbol, ptr %7, i32 0, i32 0
  %17 = load ptr, ptr %16, align 8
  %18 = call noundef nonnull align 8 dereferenceable(8) ptr @_ZlsRSo6symbol(ptr noundef nonnull align 8 dereferenceable(8) %14, ptr %17)
  br label %25

19:                                               ; preds = %3
  %20 = load ptr, ptr %5, align 8, !tbaa !106
  %21 = getelementptr inbounds nuw %"struct.realclosure::transcendental", ptr %10, i32 0, i32 1
  call void @llvm.memcpy.p0.p0.i64(ptr align 8 %8, ptr align 8 %21, i64 8, i1 false), !tbaa.struct !111
  %22 = getelementptr inbounds nuw %class.symbol, ptr %8, i32 0, i32 0
  %23 = load ptr, ptr %22, align 8
  %24 = call noundef nonnull align 8 dereferenceable(8) ptr @_ZlsRSo6symbol(ptr noundef nonnull align 8 dereferenceable(8) %20, ptr %23)
  br label %25

25:                                               ; preds = %19, %13
  ret void
}

; Function Attrs: mustprogress nounwind uwtable
define linkonce_odr hidden noundef ptr @_ZN11realclosure7manager3imp17to_transcendentalEPNS_9extensionE(ptr noundef %0) #4 comdat align 2 {
  %2 = alloca ptr, align 8
  store ptr %0, ptr %2, align 8, !tbaa !13
  %3 = load ptr, ptr %2, align 8, !tbaa !13
  ret ptr %3
}

; Function Attrs: mustprogress nounwind uwtable
define linkonce_odr hidden noundef i32 @_ZNK11realclosure9extension3kndEv(ptr noundef nonnull align 8 dereferenceable(72) %0) #4 comdat align 2 {
  %2 = alloca ptr, align 8
  store ptr %0, ptr %2, align 8, !tbaa !13
  %3 = load ptr, ptr %2, align 8
  %4 = getelementptr inbounds nuw %"struct.realclosure::extension", ptr %3, i32 0, i32 1
  %5 = load i32, ptr %4, align 4
  %6 = and i32 %5, 3
  ret i32 %6
}

; Function Attrs: mustprogress uwtable
define available_externally noundef nonnull align 8 dereferenceable(8) ptr @_ZNSolsEPFRSoS_E(ptr noundef nonnull align 8 dereferenceable(8) %0, ptr noundef %1) #6 align 2 {
  %3 = alloca ptr, align 8
  %4 = alloca ptr, align 8
  store ptr %0, ptr %3, align 8, !tbaa !106
  store ptr %1, ptr %4, align 8, !tbaa !127
  %5 = load ptr, ptr %3, align 8
  %6 = load ptr, ptr %4, align 8, !tbaa !127
  %7 = call noundef nonnull align 8 dereferenceable(8) ptr %6(ptr noundef nonnull align 8 dereferenceable(8) %5)
  ret ptr %7
}

; Function Attrs: mustprogress uwtable
define linkonce_odr hidden void @_ZNK11realclosure7manager3imp11display_extERSoPNS_9extensionEbb(ptr noundef nonnull align 8 dereferenceable(1497) %0, ptr noundef nonnull align 8 dereferenceable(8) %1, ptr noundef %2, i1 noundef zeroext %3, i1 noundef zeroext %4) #6 comdat align 2 {
  %6 = alloca ptr, align 8
  %7 = alloca ptr, align 8
  %8 = alloca ptr, align 8
  %9 = alloca i8, align 1
  %10 = alloca i8, align 1
  store ptr %0, ptr %6, align 8, !tbaa !28
  store ptr %1, ptr %7, align 8, !tbaa !106
  store ptr %2, ptr %8, align 8, !tbaa !13
  %11 = zext i1 %3 to i8
  store i8 %11, ptr %9, align 1, !tbaa !108
  %12 = zext i1 %4 to i8
  store i8 %12, ptr %10, align 1, !tbaa !108
  %13 = load ptr, ptr %6, align 8
  %14 = load ptr, ptr %8, align 8, !tbaa !13
  %15 = call noundef i32 @_ZNK11realclosure9extension3kndEv(ptr noundef nonnull align 8 dereferenceable(72) %14)
  switch i32 %15, label %57 [
    i32 0, label %16
    i32 1, label %22
    i32 2, label %28
  ]

16:                                               ; preds = %5
  %17 = load ptr, ptr %8, align 8, !tbaa !13
  %18 = call noundef ptr @_ZN11realclosure7manager3imp17to_transcendentalEPNS_9extensionE(ptr noundef %17)
  %19 = load ptr, ptr %7, align 8, !tbaa !106
  %20 = load i8, ptr %10, align 1, !tbaa !108, !range !109, !noundef !110
  %21 = trunc i8 %20 to i1
  call void @_ZNK11realclosure14transcendental7displayERSob(ptr noundef nonnull align 8 dereferenceable(104) %18, ptr noundef nonnull align 8 dereferenceable(8) %19, i1 noundef zeroext %21)
  br label %57

22:                                               ; preds = %5
  %23 = load ptr, ptr %8, align 8, !tbaa !13
  %24 = call noundef ptr @_ZN11realclosure7manager3imp16to_infinitesimalEPNS_9extensionE(ptr noundef %23)
  %25 = load ptr, ptr %7, align 8, !tbaa !106
  %26 = load i8, ptr %10, align 1, !tbaa !108, !range !109, !noundef !110
  %27 = trunc i8 %26 to i1
  call void @_ZNK11realclosure13infinitesimal7displayERSob(ptr noundef nonnull align 8 dereferenceable(88) %24, ptr noundef nonnull align 8 dereferenceable(8) %25, i1 noundef zeroext %27)
  br label %57

28:                                               ; preds = %5
  %29 = load i8, ptr %9, align 1, !tbaa !108, !range !109, !noundef !110
  %30 = trunc i8 %29 to i1
  br i1 %30, label %31, label %48

31:                                               ; preds = %28
  %32 = load i8, ptr %10, align 1, !tbaa !108, !range !109, !noundef !110
  %33 = trunc i8 %32 to i1
  br i1 %33, label %34, label %41

34:                                               ; preds = %31
  %35 = load ptr, ptr %7, align 8, !tbaa !106
  %36 = call noundef nonnull align 8 dereferenceable(8) ptr @_ZStlsISt11char_traitsIcEERSt13basic_ostreamIcT_ES5_PKc(ptr noundef nonnull align 8 dereferenceable(8) %35, ptr noundef @.str.68)
  %37 = load ptr, ptr %8, align 8, !tbaa !13
  %38 = call noundef i32 @_ZNK11realclosure9extension3idxEv(ptr noundef nonnull align 8 dereferenceable(72) %37)
  %39 = call noundef nonnull align 8 dereferenceable(8) ptr @_ZNSolsEj(ptr noundef nonnull align 8 dereferenceable(8) %36, i32 noundef %38)
  %40 = call noundef nonnull align 8 dereferenceable(8) ptr @_ZStlsISt11char_traitsIcEERSt13basic_ostreamIcT_ES5_PKc(ptr noundef nonnull align 8 dereferenceable(8) %39, ptr noundef @.str.69)
  br label %47

41:                                               ; preds = %31
  %42 = load ptr, ptr %7, align 8, !tbaa !106
  %43 = call noundef nonnull align 8 dereferenceable(8) ptr @_ZStlsISt11char_traitsIcEERSt13basic_ostreamIcT_ES5_PKc(ptr noundef nonnull align 8 dereferenceable(8) %42, ptr noundef @.str.70)
  %44 = load ptr, ptr %8, align 8, !tbaa !13
  %45 = call noundef i32 @_ZNK11realclosure9extension3idxEv(ptr noundef nonnull align 8 dereferenceable(72) %44)
  %46 = call noundef nonnull align 8 dereferenceable(8) ptr @_ZNSolsEj(ptr noundef nonnull align 8 dereferenceable(8) %43, i32 noundef %45)
  br label %47

47:                                               ; preds = %41, %34
  br label %56

48:                                               ; preds = %28
  %49 = load ptr, ptr %7, align 8, !tbaa !106
  %50 = load ptr, ptr %8, align 8, !tbaa !13
  %51 = call noundef ptr @_ZN11realclosure7manager3imp12to_algebraicEPNS_9extensionE(ptr noundef %50)
  %52 = load i8, ptr %9, align 1, !tbaa !108, !range !109, !noundef !110
  %53 = trunc i8 %52 to i1
  %54 = load i8, ptr %10, align 1, !tbaa !108, !range !109, !noundef !110
  %55 = trunc i8 %54 to i1
  call void @_ZNK11realclosure7manager3imp21display_algebraic_defERSoPNS_9algebraicEbb(ptr noundef nonnull align 8 dereferenceable(1497) %13, ptr noundef nonnull align 8 dereferenceable(8) %49, ptr noundef %51, i1 noundef zeroext %53, i1 noundef zeroext %55)
  br label %56

56:                                               ; preds = %48, %47
  br label %57

57:                                               ; preds = %56, %5, %22, %16
  ret void
}

; Function Attrs: mustprogress uwtable
define hidden void @_Z2ppPN11realclosure7manager3impEPNS_9extensionE(ptr noundef %0, ptr noundef %1) #6 {
  %3 = alloca ptr, align 8
  %4 = alloca ptr, align 8
  store ptr %0, ptr %3, align 8, !tbaa !28
  store ptr %1, ptr %4, align 8, !tbaa !13
  %5 = load ptr, ptr %3, align 8, !tbaa !28
  %6 = load ptr, ptr %4, align 8, !tbaa !13
  call void @_ZNK11realclosure7manager3imp11display_extERSoPNS_9extensionEbb(ptr noundef nonnull align 8 dereferenceable(1497) %5, ptr noundef nonnull align 8 dereferenceable(8) @_ZSt4cout, ptr noundef %6, i1 noundef zeroext false, i1 noundef zeroext false)
  %7 = call noundef nonnull align 8 dereferenceable(8) ptr @_ZNSolsEPFRSoS_E(ptr noundef nonnull align 8 dereferenceable(8) @_ZSt4cout, ptr noundef @_ZSt4endlIcSt11char_traitsIcEERSt13basic_ostreamIT_T0_ES6_)
  ret void
}