; Function Attrs: mustprogress uwtable
define hidden void @_Z2ppPN11realclosure7manager3impEPNS_9extensionE(ptr noundef %0, ptr noundef %1) local_unnamed_addr #5 {
  %3 = getelementptr inbounds nuw i8, ptr %1, i64 4
  %4 = load i32, ptr %3, align 4
  %5 = and i32 %4, 3
  switch i32 %5, label %default.unreachable [
    i32 0, label %6
    i32 1, label %21
    i32 2, label %22
    i32 3, label %_ZNK11realclosure7manager3imp11display_extERSoPNS_9extensionEbb.exit
  ]

6:                                                ; preds = %2
  %7 = getelementptr inbounds nuw i8, ptr %1, i64 72
  %.sroa.0.0.copyload.i = load ptr, ptr %7, align 8, !tbaa !142
  %8 = ptrtoint ptr %.sroa.0.0.copyload.i to i64
  %9 = and i64 %8, 7
  %10 = icmp eq i64 %9, 0
  br i1 %10, label %11, label %16

11:                                               ; preds = %6
  %.not.i4.i = icmp eq ptr %.sroa.0.0.copyload.i, null
  br i1 %.not.i4.i, label %14, label %_ZStlsISt11char_traitsIcEERSt13basic_ostreamIcT_ES5_PKc.exit.i5.i

_ZStlsISt11char_traitsIcEERSt13basic_ostreamIcT_ES5_PKc.exit.i5.i: ; preds = %11
  %12 = tail call noundef i64 @strlen(ptr noundef nonnull dereferenceable(1) %.sroa.0.0.copyload.i) #24
  %13 = tail call noundef nonnull align 8 dereferenceable(8) ptr @_ZSt16__ostream_insertIcSt11char_traitsIcEERSt13basic_ostreamIT_T0_ES6_PKS3_l(ptr noundef nonnull align 8 dereferenceable(8) @_ZSt4cout, ptr noundef nonnull %.sroa.0.0.copyload.i, i64 noundef %12)
  br label %_ZNK11realclosure7manager3imp11display_extERSoPNS_9extensionEbb.exit

14:                                               ; preds = %11
  %15 = tail call noundef nonnull align 8 dereferenceable(8) ptr @_ZSt16__ostream_insertIcSt11char_traitsIcEERSt13basic_ostreamIT_T0_ES6_PKS3_l(ptr noundef nonnull align 8 dereferenceable(8) @_ZSt4cout, ptr noundef nonnull @.str.71, i64 noundef 4)
  br label %_ZNK11realclosure7manager3imp11display_extERSoPNS_9extensionEbb.exit

16:                                               ; preds = %6
  %17 = tail call noundef nonnull align 8 dereferenceable(8) ptr @_ZSt16__ostream_insertIcSt11char_traitsIcEERSt13basic_ostreamIT_T0_ES6_PKS3_l(ptr noundef nonnull align 8 dereferenceable(8) @_ZSt4cout, ptr noundef nonnull @.str.72, i64 noundef 2)
  %18 = lshr i64 %8, 3
  %19 = trunc i64 %18 to i32
  %20 = tail call noundef nonnull align 8 dereferenceable(8) ptr @_ZNSolsEi(ptr noundef nonnull align 8 dereferenceable(8) @_ZSt4cout, i32 noundef %19)
  br label %_ZNK11realclosure7manager3imp11display_extERSoPNS_9extensionEbb.exit

21:                                               ; preds = %2
  tail call void @_ZNK11realclosure13infinitesimal7displayERSob(ptr noundef nonnull align 8 dereferenceable(88) %1, ptr noundef nonnull align 8 dereferenceable(8) @_ZSt4cout, i1 noundef zeroext false)
  br label %_ZNK11realclosure7manager3imp11display_extERSoPNS_9extensionEbb.exit

22:                                               ; preds = %2
  tail call void @_ZNK11realclosure7manager3imp21display_algebraic_defERSoPNS_9algebraicEbb(ptr noundef nonnull align 8 dereferenceable(1497) %0, ptr noundef nonnull align 8 dereferenceable(8) @_ZSt4cout, ptr noundef nonnull %1, i1 noundef zeroext false, i1 noundef zeroext false) #28
  br label %_ZNK11realclosure7manager3imp11display_extERSoPNS_9extensionEbb.exit

default.unreachable:                              ; preds = %2
  unreachable

_ZNK11realclosure7manager3imp11display_extERSoPNS_9extensionEbb.exit: ; preds = %16, %14, %_ZStlsISt11char_traitsIcEERSt13basic_ostreamIcT_ES5_PKc.exit.i5.i, %2, %21, %22
  %23 = load ptr, ptr @_ZSt4cout, align 8, !tbaa !55
  %24 = getelementptr i8, ptr %23, i64 -24
  %25 = load i64, ptr %24, align 8
  %26 = getelementptr inbounds i8, ptr @_ZSt4cout, i64 %25
  %27 = getelementptr inbounds nuw i8, ptr %26, i64 240
  %28 = load ptr, ptr %27, align 8, !tbaa !167
  %.not.i.i.i = icmp eq ptr %28, null
  br i1 %.not.i.i.i, label %29, label %_ZSt13__check_facetISt5ctypeIcEERKT_PS3_.exit.i.i

29:                                               ; preds = %_ZNK11realclosure7manager3imp11display_extERSoPNS_9extensionEbb.exit
  tail call void @_ZSt16__throw_bad_castv() #26
  unreachable

_ZSt13__check_facetISt5ctypeIcEERKT_PS3_.exit.i.i: ; preds = %_ZNK11realclosure7manager3imp11display_extERSoPNS_9extensionEbb.exit
  %30 = getelementptr inbounds nuw i8, ptr %28, i64 56
  %31 = load i8, ptr %30, align 8, !tbaa !182
  %.not.i1.i.i = icmp eq i8 %31, 0
  br i1 %.not.i1.i.i, label %35, label %32

32:                                               ; preds = %_ZSt13__check_facetISt5ctypeIcEERKT_PS3_.exit.i.i
  %33 = getelementptr inbounds nuw i8, ptr %28, i64 67
  %34 = load i8, ptr %33, align 1, !tbaa !10
  br label %_ZSt4endlIcSt11char_traitsIcEERSt13basic_ostreamIT_T0_ES6_.exit

35:                                               ; preds = %_ZSt13__check_facetISt5ctypeIcEERKT_PS3_.exit.i.i
  tail call void @_ZNKSt5ctypeIcE13_M_widen_initEv(ptr noundef nonnull align 8 dereferenceable(570) %28)
  %36 = load ptr, ptr %28, align 8, !tbaa !55
  %37 = getelementptr inbounds nuw i8, ptr %36, i64 48
  %38 = load ptr, ptr %37, align 8
  %39 = tail call noundef signext i8 %38(ptr noundef nonnull align 8 dereferenceable(570) %28, i8 noundef signext 10)
  br label %_ZSt4endlIcSt11char_traitsIcEERSt13basic_ostreamIT_T0_ES6_.exit

_ZSt4endlIcSt11char_traitsIcEERSt13basic_ostreamIT_T0_ES6_.exit: ; preds = %32, %35
  %.0.i.i.i = phi i8 [ %34, %32 ], [ %39, %35 ]
  %40 = tail call noundef nonnull align 8 dereferenceable(8) ptr @_ZNSo3putEc(ptr noundef nonnull align 8 dereferenceable(8) @_ZSt4cout, i8 noundef signext %.0.i.i.i)
  %41 = tail call noundef nonnull align 8 dereferenceable(8) ptr @_ZNSo5flushEv(ptr noundef nonnull align 8 dereferenceable(8) %40)
  ret void
}